; Function Attrs: mustprogress uwtable
define internal void @_ZN6icu_75L18cloneUnicodeStringEP8UElementS1_(ptr nocapture noundef writeonly %dst, ptr nocapture noundef readonly %src) #1 personality ptr @__gxx_personality_v0 {
entry:
  %call = tail call noundef ptr @_ZN6icu_757UMemorynwEm(i64 noundef 64) #22
  %new.isnull = icmp eq ptr %call, null
  br i1 %new.isnull, label %new.cont, label %new.notnull

new.notnull:                                      ; preds = %entry
  %0 = load ptr, ptr %src, align 8
  invoke void @_ZN6icu_7513UnicodeStringC1ERKS0_(ptr noundef nonnull align 8 dereferenceable(64) %call, ptr noundef nonnull align 8 dereferenceable(64) %0)
          to label %new.cont unwind label %lpad

new.cont:                                         ; preds = %new.notnull, %entry
  store ptr %call, ptr %dst, align 8
  ret void

lpad:                                             ; preds = %new.notnull
  %1 = landingpad { ptr, i32 }
          cleanup
  tail call void @_ZN6icu_757UMemorydlEPv(ptr noundef nonnull %call) #22
  resume { ptr, i32 } %1
}